target datalayout = "e-m:e-p270:32:32-p271:32:32-p272:64:64-i64:64-i128:128-f80:128-n8:16:32:64-S128"
target triple = "x86_64-pc-linux-gnu"

; Function Attrs: nounwind uwtable
define internal void @put_vp8_bilinear8_v_c(ptr noundef %0, i64 noundef %1, ptr noundef %2, i64 noundef %3, i32 noundef %4, i32 noundef %5, i32 noundef %6) #1 {
  %8 = alloca ptr, align 8
  %9 = alloca i64, align 8
  %10 = alloca ptr, align 8
  %11 = alloca i64, align 8
  %12 = alloca i32, align 4
  %13 = alloca i32, align 4
  %14 = alloca i32, align 4
  %15 = alloca i32, align 4
  %16 = alloca i32, align 4
  %17 = alloca i32, align 4
  %18 = alloca i32, align 4
  store ptr %0, ptr %8, align 8, !tbaa !10
  store i64 %1, ptr %9, align 8, !tbaa !12
  store ptr %2, ptr %10, align 8, !tbaa !10
  store i64 %3, ptr %11, align 8, !tbaa !12
  store i32 %4, ptr %12, align 4, !tbaa !14
  store i32 %5, ptr %13, align 4, !tbaa !14
  store i32 %6, ptr %14, align 4, !tbaa !14
  call void @llvm.lifetime.start.p0(i64 4, ptr %15) #6
  %19 = load i32, ptr %14, align 4, !tbaa !14
  %20 = sub nsw i32 8, %19
  store i32 %20, ptr %15, align 4, !tbaa !14
  call void @llvm.lifetime.start.p0(i64 4, ptr %16) #6
  %21 = load i32, ptr %14, align 4, !tbaa !14
  store i32 %21, ptr %16, align 4, !tbaa !14
  call void @llvm.lifetime.start.p0(i64 4, ptr %17) #6
  call void @llvm.lifetime.start.p0(i64 4, ptr %18) #6
  store i32 0, ptr %18, align 4, !tbaa !14
  br label %22

22:                                               ; preds = %67, %7
  %23 = load i32, ptr %18, align 4, !tbaa !14
  %24 = load i32, ptr %12, align 4, !tbaa !14
  %25 = icmp slt i32 %23, %24
  br i1 %25, label %26, label %70

26:                                               ; preds = %22
  store i32 0, ptr %17, align 4, !tbaa !14
  br label %27

27:                                               ; preds = %57, %26
  %28 = load i32, ptr %17, align 4, !tbaa !14
  %29 = icmp slt i32 %28, 8
  br i1 %29, label %30, label %60

30:                                               ; preds = %27
  %31 = load i32, ptr %15, align 4, !tbaa !14
  %32 = load ptr, ptr %10, align 8, !tbaa !10
  %33 = load i32, ptr %17, align 4, !tbaa !14
  %34 = sext i32 %33 to i64
  %35 = getelementptr inbounds i8, ptr %32, i64 %34
  %36 = load i8, ptr %35, align 1, !tbaa !18
  %37 = zext i8 %36 to i32
  %38 = mul nsw i32 %31, %37
  %39 = load i32, ptr %16, align 4, !tbaa !14
  %40 = load ptr, ptr %10, align 8, !tbaa !10
  %41 = load i32, ptr %17, align 4, !tbaa !14
  %42 = sext i32 %41 to i64
  %43 = load i64, ptr %11, align 8, !tbaa !12
  %44 = add nsw i64 %42, %43
  %45 = getelementptr inbounds i8, ptr %40, i64 %44
  %46 = load i8, ptr %45, align 1, !tbaa !18
  %47 = zext i8 %46 to i32
  %48 = mul nsw i32 %39, %47
  %49 = add nsw i32 %38, %48
  %50 = add nsw i32 %49, 4
  %51 = ashr i32 %50, 3
  %52 = trunc i32 %51 to i8
  %53 = load ptr, ptr %8, align 8, !tbaa !10
  %54 = load i32, ptr %17, align 4, !tbaa !14
  %55 = sext i32 %54 to i64
  %56 = getelementptr inbounds i8, ptr %53, i64 %55
  store i8 %52, ptr %56, align 1, !tbaa !18
  br label %57

57:                                               ; preds = %30
  %58 = load i32, ptr %17, align 4, !tbaa !14
  %59 = add nsw i32 %58, 1
  store i32 %59, ptr %17, align 4, !tbaa !14
  br label %27, !llvm.loop !103

60:                                               ; preds = %27
  %61 = load i64, ptr %9, align 8, !tbaa !12
  %62 = load ptr, ptr %8, align 8, !tbaa !10
  %63 = getelementptr inbounds i8, ptr %62, i64 %61
  store ptr %63, ptr %8, align 8, !tbaa !10
  %64 = load i64, ptr %11, align 8, !tbaa !12
  %65 = load ptr, ptr %10, align 8, !tbaa !10
  %66 = getelementptr inbounds i8, ptr %65, i64 %64
  store ptr %66, ptr %10, align 8, !tbaa !10
  br label %67

67:                                               ; preds = %60
  %68 = load i32, ptr %18, align 4, !tbaa !14
  %69 = add nsw i32 %68, 1
  store i32 %69, ptr %18, align 4, !tbaa !14
  br label %22, !llvm.loop !104

70:                                               ; preds = %22
  call void @llvm.lifetime.end.p0(i64 4, ptr %18) #6
  call void @llvm.lifetime.end.p0(i64 4, ptr %17) #6
  call void @llvm.lifetime.end.p0(i64 4, ptr %16) #6
  call void @llvm.lifetime.end.p0(i64 4, ptr %15) #6
  ret void
}