; Function Attrs: nofree norecurse nosync nounwind memory(argmem: readwrite) uwtable
define internal void @put_vp8_bilinear8_v_c(ptr noundef writeonly captures(none) %0, i64 noundef %1, ptr noundef readonly captures(none) %2, i64 noundef %3, i32 noundef %4, i32 %5, i32 noundef %6) #1 {
  %8 = sub nsw i32 8, %6
  %9 = icmp sgt i32 %4, 0
  br i1 %9, label %.preheader, label %._crit_edge

.preheader:                                       ; preds = %7, %25
  %.025 = phi i32 [ %27, %25 ], [ 0, %7 ]
  %.02024 = phi ptr [ %26, %25 ], [ %0, %7 ]
  %.02123 = phi ptr [ %10, %25 ], [ %2, %7 ]
  %10 = getelementptr i8, ptr %.02123, i64 %3
  br label %11

11:                                               ; preds = %.preheader, %11
  %indvars.iv = phi i64 [ 0, %.preheader ], [ %indvars.iv.next, %11 ]
  %12 = getelementptr inbounds nuw i8, ptr %.02123, i64 %indvars.iv
  %13 = load i8, ptr %12, align 1, !tbaa !10
  %14 = zext i8 %13 to i32
  %15 = mul nsw i32 %8, %14
  %16 = getelementptr i8, ptr %10, i64 %indvars.iv
  %17 = load i8, ptr %16, align 1, !tbaa !10
  %18 = zext i8 %17 to i32
  %19 = mul nsw i32 %6, %18
  %20 = add i32 %15, 4
  %21 = add i32 %20, %19
  %22 = lshr i32 %21, 3
  %23 = trunc i32 %22 to i8
  %24 = getelementptr inbounds nuw i8, ptr %.02024, i64 %indvars.iv
  store i8 %23, ptr %24, align 1, !tbaa !10
  %indvars.iv.next = add nuw nsw i64 %indvars.iv, 1
  %exitcond.not = icmp eq i64 %indvars.iv.next, 8
  br i1 %exitcond.not, label %25, label %11, !llvm.loop !95

25:                                               ; preds = %11
  %26 = getelementptr inbounds i8, ptr %.02024, i64 %1
  %27 = add nuw nsw i32 %.025, 1
  %exitcond27.not = icmp eq i32 %27, %4
  br i1 %exitcond27.not, label %._crit_edge, label %.preheader, !llvm.loop !96

._crit_edge:                                      ; preds = %25, %7
  ret void
}